; Function Attrs: mustprogress uwtable
define dso_local noundef zeroext i1 @_ZN5ImGui10TreeNodeExEPKciS1_z(ptr noundef %0, i32 noundef %1, ptr noundef %2, ...) local_unnamed_addr #5 {
  %4 = alloca ptr, align 8
  %5 = alloca ptr, align 8
  %6 = alloca [1 x %struct.__va_list_tag], align 16
  call void @llvm.lifetime.start.p0(i64 24, ptr nonnull %6) #43
  call void @llvm.va_start.p0(ptr nonnull %6)
  %7 = load ptr, ptr @GImGui, align 8, !tbaa !4
  %8 = getelementptr inbounds nuw i8, ptr %7, i64 4928
  %9 = load ptr, ptr %8, align 8, !tbaa !9
  %10 = getelementptr inbounds nuw i8, ptr %9, i64 204
  store i8 1, ptr %10, align 4, !tbaa !130
  %11 = getelementptr inbounds nuw i8, ptr %9, i64 207
  %12 = load i8, ptr %11, align 1, !tbaa !151, !range !152, !noundef !153
  %13 = trunc nuw i8 %12 to i1
  br i1 %13, label %_ZN5ImGui11TreeNodeExVEPKciS1_P13__va_list_tag.exit, label %14

14:                                               ; preds = %3
  %15 = call noundef i32 @_ZN11ImGuiWindow5GetIDEPKcS1_(ptr noundef nonnull align 8 dereferenceable(1029) %9, ptr noundef %0, ptr noundef null)
  call void @llvm.lifetime.start.p0(i64 8, ptr nonnull %4) #43
  call void @llvm.lifetime.start.p0(i64 8, ptr nonnull %5) #43
  call void @_Z27ImFormatStringToTempBufferVPPKcS1_S0_P13__va_list_tag(ptr noundef nonnull %4, ptr noundef nonnull %5, ptr noundef %2, ptr noundef nonnull %6)
  %16 = load ptr, ptr %4, align 8, !tbaa !168
  %17 = load ptr, ptr %5, align 8, !tbaa !168
  %18 = call noundef zeroext i1 @_ZN5ImGui16TreeNodeBehaviorEjiPKcS1_(i32 noundef %15, i32 noundef %1, ptr noundef %16, ptr noundef %17)
  call void @llvm.lifetime.end.p0(i64 8, ptr nonnull %5) #43
  call void @llvm.lifetime.end.p0(i64 8, ptr nonnull %4) #43
  br label %_ZN5ImGui11TreeNodeExVEPKciS1_P13__va_list_tag.exit

_ZN5ImGui11TreeNodeExVEPKciS1_P13__va_list_tag.exit: ; preds = %3, %14
  %.0.i = phi i1 [ %18, %14 ], [ false, %3 ]
  call void @llvm.va_end.p0(ptr nonnull %6)
  call void @llvm.lifetime.end.p0(i64 24, ptr nonnull %6) #43
  ret i1 %.0.i
}